target datalayout = "e-m:e-p270:32:32-p271:32:32-p272:64:64-i64:64-i128:128-f80:128-n8:16:32:64-S128"
target triple = "x86_64-unknown-linux-gnu"

%"class.icu_75::UnicodeSetIterator" = type { %"class.icu_75::UObject", i32, i32, ptr, ptr, i32, i32, i32, i32, i32, i32, ptr }
%"class.icu_75::UObject" = type { ptr }
%"class.icu_75::UnicodeSet" = type <{ %"class.icu_75::UnicodeFilter", ptr, i32, i32, i8, [7 x i8], ptr, ptr, i32, [4 x i8], ptr, i32, [4 x i8], ptr, ptr, [25 x i32], [4 x i8] }>
%"class.icu_75::UnicodeFilter" = type { %"class.icu_75::UnicodeFunctor", %"class.icu_75::UnicodeMatcher" }
%"class.icu_75::UnicodeFunctor" = type { %"class.icu_75::UObject" }
%"class.icu_75::UnicodeMatcher" = type { ptr }

; Function Attrs: mustprogress uwtable
define void @_ZN6icu_7518UnicodeSetIterator9loadRangeEi(ptr noundef nonnull align 8 dereferenceable(64) %this, i32 noundef %iRange) #1 align 2 {
entry:
  %this.addr = alloca ptr, align 8
  %iRange.addr = alloca i32, align 4
  store ptr %this, ptr %this.addr, align 8
  store i32 %iRange, ptr %iRange.addr, align 4
  %this1 = load ptr, ptr %this.addr, align 8
  %set = getelementptr inbounds %"class.icu_75::UnicodeSetIterator", ptr %this1, i32 0, i32 4
  %0 = load ptr, ptr %set, align 8
  %1 = load i32, ptr %iRange.addr, align 4
  %call = call noundef i32 @_ZNK6icu_7510UnicodeSet13getRangeStartEi(ptr noundef nonnull align 8 dereferenceable(200) %0, i32 noundef %1)
  %nextElement = getelementptr inbounds %"class.icu_75::UnicodeSetIterator", ptr %this1, i32 0, i32 8
  store i32 %call, ptr %nextElement, align 4
  %set2 = getelementptr inbounds %"class.icu_75::UnicodeSetIterator", ptr %this1, i32 0, i32 4
  %2 = load ptr, ptr %set2, align 8
  %3 = load i32, ptr %iRange.addr, align 4
  %call3 = call noundef i32 @_ZNK6icu_7510UnicodeSet11getRangeEndEi(ptr noundef nonnull align 8 dereferenceable(200) %2, i32 noundef %3)
  %endElement = getelementptr inbounds %"class.icu_75::UnicodeSetIterator", ptr %this1, i32 0, i32 7
  store i32 %call3, ptr %endElement, align 8
  ret void
}

; Function Attrs: mustprogress uwtable
define noundef signext i8 @_ZN6icu_7518UnicodeSetIterator4nextEv(ptr noundef nonnull align 8 dereferenceable(64) %this) #1 align 2 {
entry:
  %retval = alloca i8, align 1
  %this.addr = alloca ptr, align 8
  store ptr %this, ptr %this.addr, align 8
  %this1 = load ptr, ptr %this.addr, align 8
  %nextElement = getelementptr inbounds %"class.icu_75::UnicodeSetIterator", ptr %this1, i32 0, i32 8
  %0 = load i32, ptr %nextElement, align 4
  %endElement = getelementptr inbounds %"class.icu_75::UnicodeSetIterator", ptr %this1, i32 0, i32 7
  %1 = load i32, ptr %endElement, align 8
  %cmp = icmp sle i32 %0, %1
  br i1 %cmp, label %if.then, label %if.end

if.then:                                          ; preds = %entry
  %nextElement2 = getelementptr inbounds %"class.icu_75::UnicodeSetIterator", ptr %this1, i32 0, i32 8
  %2 = load i32, ptr %nextElement2, align 4
  %inc = add nsw i32 %2, 1
  store i32 %inc, ptr %nextElement2, align 4
  %codepointEnd = getelementptr inbounds %"class.icu_75::UnicodeSetIterator", ptr %this1, i32 0, i32 2
  store i32 %2, ptr %codepointEnd, align 4
  %codepoint = getelementptr inbounds %"class.icu_75::UnicodeSetIterator", ptr %this1, i32 0, i32 1
  store i32 %2, ptr %codepoint, align 8
  %string = getelementptr inbounds %"class.icu_75::UnicodeSetIterator", ptr %this1, i32 0, i32 3
  store ptr null, ptr %string, align 8
  store i8 1, ptr %retval, align 1
  br label %return

if.end:                                           ; preds = %entry
  %range = getelementptr inbounds %"class.icu_75::UnicodeSetIterator", ptr %this1, i32 0, i32 6
  %3 = load i32, ptr %range, align 4
  %endRange = getelementptr inbounds %"class.icu_75::UnicodeSetIterator", ptr %this1, i32 0, i32 5
  %4 = load i32, ptr %endRange, align 8
  %cmp3 = icmp slt i32 %3, %4
  br i1 %cmp3, label %if.then4, label %if.end12

if.then4:                                         ; preds = %if.end
  %range5 = getelementptr inbounds %"class.icu_75::UnicodeSetIterator", ptr %this1, i32 0, i32 6
  %5 = load i32, ptr %range5, align 4
  %inc6 = add nsw i32 %5, 1
  store i32 %inc6, ptr %range5, align 4
  call void @_ZN6icu_7518UnicodeSetIterator9loadRangeEi(ptr noundef nonnull align 8 dereferenceable(64) %this1, i32 noundef %inc6)
  %nextElement7 = getelementptr inbounds %"class.icu_75::UnicodeSetIterator", ptr %this1, i32 0, i32 8
  %6 = load i32, ptr %nextElement7, align 4
  %inc8 = add nsw i32 %6, 1
  store i32 %inc8, ptr %nextElement7, align 4
  %codepointEnd9 = getelementptr inbounds %"class.icu_75::UnicodeSetIterator", ptr %this1, i32 0, i32 2
  store i32 %6, ptr %codepointEnd9, align 4
  %codepoint10 = getelementptr inbounds %"class.icu_75::UnicodeSetIterator", ptr %this1, i32 0, i32 1
  store i32 %6, ptr %codepoint10, align 8
  %string11 = getelementptr inbounds %"class.icu_75::UnicodeSetIterator", ptr %this1, i32 0, i32 3
  store ptr null, ptr %string11, align 8
  store i8 1, ptr %retval, align 1
  br label %return

if.end12:                                         ; preds = %if.end
  %nextString = getelementptr inbounds %"class.icu_75::UnicodeSetIterator", ptr %this1, i32 0, i32 9
  %7 = load i32, ptr %nextString, align 8
  %stringCount = getelementptr inbounds %"class.icu_75::UnicodeSetIterator", ptr %this1, i32 0, i32 10
  %8 = load i32, ptr %stringCount, align 4
  %cmp13 = icmp sge i32 %7, %8
  br i1 %cmp13, label %if.then14, label %if.end15

if.then14:                                        ; preds = %if.end12
  store i8 0, ptr %retval, align 1
  br label %return

if.end15:                                         ; preds = %if.end12
  %codepoint16 = getelementptr inbounds %"class.icu_75::UnicodeSetIterator", ptr %this1, i32 0, i32 1
  store i32 -1, ptr %codepoint16, align 8
  %set = getelementptr inbounds %"class.icu_75::UnicodeSetIterator", ptr %this1, i32 0, i32 4
  %9 = load ptr, ptr %set, align 8
  %strings = getelementptr inbounds %"class.icu_75::UnicodeSet", ptr %9, i32 0, i32 13
  %10 = load ptr, ptr %strings, align 8
  %nextString17 = getelementptr inbounds %"class.icu_75::UnicodeSetIterator", ptr %this1, i32 0, i32 9
  %11 = load i32, ptr %nextString17, align 8
  %inc18 = add nsw i32 %11, 1
  store i32 %inc18, ptr %nextString17, align 8
  %call = call noundef ptr @_ZNK6icu_757UVector9elementAtEi(ptr noundef nonnull align 8 dereferenceable(40) %10, i32 noundef %11)
  %string19 = getelementptr inbounds %"class.icu_75::UnicodeSetIterator", ptr %this1, i32 0, i32 3
  store ptr %call, ptr %string19, align 8
  store i8 1, ptr %retval, align 1
  br label %return

return:                                           ; preds = %if.end15, %if.then14, %if.then4, %if.then
  %12 = load i8, ptr %retval, align 1
  ret i8 %12
}