; Function Attrs: mustprogress uwtable
define noundef signext i8 @_ZN6icu_7518UnicodeSetIterator4nextEv(ptr nocapture noundef nonnull align 8 dereferenceable(64) %this) local_unnamed_addr #1 align 2 {
entry:
  %nextElement = getelementptr inbounds i8, ptr %this, i64 44
  %0 = load i32, ptr %nextElement, align 4
  %endElement = getelementptr inbounds i8, ptr %this, i64 40
  %1 = load i32, ptr %endElement, align 8
  %cmp.not = icmp sgt i32 %0, %1
  br i1 %cmp.not, label %if.end, label %if.then

if.then:                                          ; preds = %entry
  %inc = add nsw i32 %0, 1
  store i32 %inc, ptr %nextElement, align 4
  %codepointEnd = getelementptr inbounds i8, ptr %this, i64 12
  store i32 %0, ptr %codepointEnd, align 4
  %codepoint = getelementptr inbounds i8, ptr %this, i64 8
  store i32 %0, ptr %codepoint, align 8
  br label %return.sink.split

if.end:                                           ; preds = %entry
  %range = getelementptr inbounds i8, ptr %this, i64 36
  %2 = load i32, ptr %range, align 4
  %endRange = getelementptr inbounds i8, ptr %this, i64 32
  %3 = load i32, ptr %endRange, align 8
  %cmp3 = icmp slt i32 %2, %3
  br i1 %cmp3, label %if.then4, label %if.end12

if.then4:                                         ; preds = %if.end
  %inc6 = add nsw i32 %2, 1
  store i32 %inc6, ptr %range, align 4
  %set.i = getelementptr inbounds i8, ptr %this, i64 24
  %4 = load ptr, ptr %set.i, align 8
  %call.i = tail call noundef i32 @_ZNK6icu_7510UnicodeSet13getRangeStartEi(ptr noundef nonnull align 8 dereferenceable(200) %4, i32 noundef %inc6)
  store i32 %call.i, ptr %nextElement, align 4
  %5 = load ptr, ptr %set.i, align 8
  %call3.i = tail call noundef i32 @_ZNK6icu_7510UnicodeSet11getRangeEndEi(ptr noundef nonnull align 8 dereferenceable(200) %5, i32 noundef %inc6)
  store i32 %call3.i, ptr %endElement, align 8
  %6 = load i32, ptr %nextElement, align 4
  %inc8 = add nsw i32 %6, 1
  store i32 %inc8, ptr %nextElement, align 4
  %codepointEnd9 = getelementptr inbounds i8, ptr %this, i64 12
  store i32 %6, ptr %codepointEnd9, align 4
  %codepoint10 = getelementptr inbounds i8, ptr %this, i64 8
  store i32 %6, ptr %codepoint10, align 8
  br label %return.sink.split

if.end12:                                         ; preds = %if.end
  %nextString = getelementptr inbounds i8, ptr %this, i64 48
  %7 = load i32, ptr %nextString, align 8
  %stringCount = getelementptr inbounds i8, ptr %this, i64 52
  %8 = load i32, ptr %stringCount, align 4
  %cmp13.not = icmp slt i32 %7, %8
  br i1 %cmp13.not, label %if.end15, label %return

if.end15:                                         ; preds = %if.end12
  %codepoint16 = getelementptr inbounds i8, ptr %this, i64 8
  store i32 -1, ptr %codepoint16, align 8
  %set = getelementptr inbounds i8, ptr %this, i64 24
  %9 = load ptr, ptr %set, align 8
  %strings = getelementptr inbounds i8, ptr %9, i64 80
  %10 = load ptr, ptr %strings, align 8
  %inc18 = add nsw i32 %7, 1
  store i32 %inc18, ptr %nextString, align 8
  %call = tail call noundef ptr @_ZNK6icu_757UVector9elementAtEi(ptr noundef nonnull align 8 dereferenceable(40) %10, i32 noundef %7)
  br label %return.sink.split

return.sink.split:                                ; preds = %if.then, %if.then4, %if.end15
  %call.sink = phi ptr [ %call, %if.end15 ], [ null, %if.then4 ], [ null, %if.then ]
  %string19 = getelementptr inbounds i8, ptr %this, i64 16
  store ptr %call.sink, ptr %string19, align 8
  br label %return

return:                                           ; preds = %return.sink.split, %if.end12
  %retval.0 = phi i8 [ 0, %if.end12 ], [ 1, %return.sink.split ]
  ret i8 %retval.0
}